target datalayout = "e-m:e-p270:32:32-p271:32:32-p272:64:64-i64:64-i128:128-f80:128-n8:16:32:64-S128"
target triple = "x86_64-pc-linux-gnu"

%"class.icu_77::UnicodeString" = type { %"class.icu_77::Replaceable", %"union.icu_77::UnicodeString::StackBufferOrFields" }
%"class.icu_77::Replaceable" = type { %"class.icu_77::UObject" }
%"class.icu_77::UObject" = type { ptr }
%"union.icu_77::UnicodeString::StackBufferOrFields" = type { %struct.anon.0, [32 x i8] }
%struct.anon.0 = type { i16, i32, i32, ptr }
%"class.icu_77::RuleBasedNumberFormat" = type { %"class.icu_77::NumberFormat.base", ptr, ptr, i32, ptr, %"class.icu_77::Locale", ptr, ptr, ptr, ptr, i32, i8, ptr, ptr, %"class.icu_77::UnicodeString", i8, i8, i8, ptr }
%"class.icu_77::NumberFormat.base" = type <{ %"class.icu_77::Format", i8, [3 x i8], i32, i32, i32, i32, i8, i8, [4 x i16], [2 x i8], i32 }>
%"class.icu_77::Format" = type { %"class.icu_77::UObject", ptr, ptr }
%"class.icu_77::Locale" = type <{ %"class.icu_77::UObject", [12 x i8], [6 x i8], [4 x i8], [2 x i8], i32, [4 x i8], ptr, [157 x i8], [3 x i8], ptr, i8, [7 x i8] }>
%struct.anon = type { i16, [27 x i16] }

@_ZTVN6icu_777UObjectE = available_externally unnamed_addr constant { [5 x ptr] } { [5 x ptr] [ptr null, ptr @_ZTIN6icu_777UObjectE, ptr @_ZN6icu_777UObjectD1Ev, ptr @_ZN6icu_777UObjectD0Ev, ptr @_ZNK6icu_777UObject17getDynamicClassIDEv] }, align 8

; Function Attrs: inlinehint mustprogress nounwind uwtable
define linkonce_odr void @_ZN6icu_777UObjectC2Ev(ptr noundef nonnull align 8 dereferenceable(8) %0) unnamed_addr #4 comdat align 2 {
  %2 = alloca ptr, align 8
  store ptr %0, ptr %2, align 8, !tbaa !225
  %3 = load ptr, ptr %2, align 8
  store ptr getelementptr inbounds inrange(-16, 24) ({ [5 x ptr] }, ptr @_ZTVN6icu_777UObjectE, i32 0, i32 0, i32 2), ptr %3, align 8, !tbaa !10
  ret void
}

; Function Attrs: inlinehint mustprogress nounwind uwtable
define linkonce_odr void @_ZN6icu_7711ReplaceableC2Ev(ptr noundef nonnull align 8 dereferenceable(8) %0) unnamed_addr #4 comdat align 2 {
  %2 = alloca ptr, align 8
  store ptr %0, ptr %2, align 8, !tbaa !223
  %3 = load ptr, ptr %2, align 8
  call void @_ZN6icu_777UObjectC2Ev(ptr noundef nonnull align 8 dereferenceable(8) %3) #14
  store ptr getelementptr inbounds inrange(-16, 88) ({ [13 x ptr] }, ptr @_ZTVN6icu_7711ReplaceableE, i32 0, i32 0, i32 2), ptr %3, align 8, !tbaa !10
  ret void
}

; Function Attrs: inlinehint mustprogress uwtable
define linkonce_odr void @_ZN6icu_7713UnicodeStringC2Ev(ptr noundef nonnull align 8 dereferenceable(64) %0) unnamed_addr #6 comdat align 2 {
  %2 = alloca ptr, align 8
  store ptr %0, ptr %2, align 8, !tbaa !76
  %3 = load ptr, ptr %2, align 8
  call void @_ZN6icu_7711ReplaceableC2Ev(ptr noundef nonnull align 8 dereferenceable(8) %3)
  store ptr getelementptr inbounds inrange(-16, 88) ({ [13 x ptr] }, ptr @_ZTVN6icu_7713UnicodeStringE, i32 0, i32 0, i32 2), ptr %3, align 8, !tbaa !10
  %4 = getelementptr inbounds nuw %"class.icu_77::UnicodeString", ptr %3, i32 0, i32 1
  %5 = getelementptr inbounds nuw %struct.anon, ptr %4, i32 0, i32 0
  store i16 2, ptr %5, align 8, !tbaa !39
  ret void
}

; Function Attrs: mustprogress uwtable
define void @_ZN6icu_7721RuleBasedNumberFormatC2ERKNS_13UnicodeStringERKNS_6LocaleER11UParseErrorR10UErrorCode(ptr noundef nonnull align 8 dereferenceable(456) %0, ptr noundef nonnull align 8 dereferenceable(64) %1, ptr noundef nonnull align 8 dereferenceable(217) %2, ptr noundef nonnull align 4 dereferenceable(72) %3, ptr noundef nonnull align 4 dereferenceable(4) %4) unnamed_addr #2 align 2 personality ptr @__gxx_personality_v0 {
  %6 = alloca ptr, align 8
  %7 = alloca ptr, align 8
  %8 = alloca ptr, align 8
  %9 = alloca ptr, align 8
  %10 = alloca ptr, align 8
  %11 = alloca ptr, align 8
  %12 = alloca i32, align 4
  store ptr %0, ptr %6, align 8, !tbaa !3
  store ptr %1, ptr %7, align 8, !tbaa !76
  store ptr %2, ptr %8, align 8, !tbaa !85
  store ptr %3, ptr %9, align 8, !tbaa !78
  store ptr %4, ptr %10, align 8, !tbaa !51
  %13 = load ptr, ptr %6, align 8
  call void @_ZN6icu_7712NumberFormatC2Ev(ptr noundef nonnull align 8 dereferenceable(60) %13)
  store ptr getelementptr inbounds inrange(-16, 408) ({ [53 x ptr] }, ptr @_ZTVN6icu_7721RuleBasedNumberFormatE, i32 0, i32 0, i32 2), ptr %13, align 8, !tbaa !10
  %14 = getelementptr inbounds nuw %"class.icu_77::RuleBasedNumberFormat", ptr %13, i32 0, i32 1
  store ptr null, ptr %14, align 8, !tbaa !87
  %15 = getelementptr inbounds nuw %"class.icu_77::RuleBasedNumberFormat", ptr %13, i32 0, i32 2
  store ptr null, ptr %15, align 8, !tbaa !104
  %16 = getelementptr inbounds nuw %"class.icu_77::RuleBasedNumberFormat", ptr %13, i32 0, i32 3
  store i32 0, ptr %16, align 8, !tbaa !105
  %17 = getelementptr inbounds nuw %"class.icu_77::RuleBasedNumberFormat", ptr %13, i32 0, i32 4
  store ptr null, ptr %17, align 8, !tbaa !106
  %18 = getelementptr inbounds nuw %"class.icu_77::RuleBasedNumberFormat", ptr %13, i32 0, i32 5
  %19 = load ptr, ptr %8, align 8, !tbaa !85
  invoke void @_ZN6icu_776LocaleC1ERKS0_(ptr noundef nonnull align 8 dereferenceable(217) %18, ptr noundef nonnull align 8 dereferenceable(217) %19)
          to label %20 unwind label %39

20:                                               ; preds = %5
  %21 = getelementptr inbounds nuw %"class.icu_77::RuleBasedNumberFormat", ptr %13, i32 0, i32 6
  store ptr null, ptr %21, align 8, !tbaa !107
  %22 = getelementptr inbounds nuw %"class.icu_77::RuleBasedNumberFormat", ptr %13, i32 0, i32 7
  store ptr null, ptr %22, align 8, !tbaa !108
  %23 = getelementptr inbounds nuw %"class.icu_77::RuleBasedNumberFormat", ptr %13, i32 0, i32 8
  store ptr null, ptr %23, align 8, !tbaa !109
  %24 = getelementptr inbounds nuw %"class.icu_77::RuleBasedNumberFormat", ptr %13, i32 0, i32 9
  store ptr null, ptr %24, align 8, !tbaa !110
  %25 = getelementptr inbounds nuw %"class.icu_77::RuleBasedNumberFormat", ptr %13, i32 0, i32 10
  store i32 7, ptr %25, align 8, !tbaa !111
  %26 = getelementptr inbounds nuw %"class.icu_77::RuleBasedNumberFormat", ptr %13, i32 0, i32 11
  store i8 0, ptr %26, align 4, !tbaa !112
  %27 = getelementptr inbounds nuw %"class.icu_77::RuleBasedNumberFormat", ptr %13, i32 0, i32 12
  store ptr null, ptr %27, align 8, !tbaa !113
  %28 = getelementptr inbounds nuw %"class.icu_77::RuleBasedNumberFormat", ptr %13, i32 0, i32 13
  store ptr null, ptr %28, align 8, !tbaa !114
  %29 = getelementptr inbounds nuw %"class.icu_77::RuleBasedNumberFormat", ptr %13, i32 0, i32 14
  invoke void @_ZN6icu_7713UnicodeStringC2Ev(ptr noundef nonnull align 8 dereferenceable(64) %29)
          to label %30 unwind label %43

30:                                               ; preds = %20
  %31 = getelementptr inbounds nuw %"class.icu_77::RuleBasedNumberFormat", ptr %13, i32 0, i32 15
  store i8 0, ptr %31, align 8, !tbaa !115
  %32 = getelementptr inbounds nuw %"class.icu_77::RuleBasedNumberFormat", ptr %13, i32 0, i32 16
  store i8 0, ptr %32, align 1, !tbaa !116
  %33 = getelementptr inbounds nuw %"class.icu_77::RuleBasedNumberFormat", ptr %13, i32 0, i32 17
  store i8 0, ptr %33, align 2, !tbaa !117
  %34 = getelementptr inbounds nuw %"class.icu_77::RuleBasedNumberFormat", ptr %13, i32 0, i32 18
  store ptr null, ptr %34, align 8, !tbaa !118
  %35 = load ptr, ptr %7, align 8, !tbaa !76
  %36 = load ptr, ptr %9, align 8, !tbaa !78
  %37 = load ptr, ptr %10, align 8, !tbaa !51
  invoke void @_ZN6icu_7721RuleBasedNumberFormat4initERKNS_13UnicodeStringEPNS_16LocalizationInfoER11UParseErrorR10UErrorCode(ptr noundef nonnull align 8 dereferenceable(456) %13, ptr noundef nonnull align 8 dereferenceable(64) %35, ptr noundef null, ptr noundef nonnull align 4 dereferenceable(72) %36, ptr noundef nonnull align 4 dereferenceable(4) %37)
          to label %38 unwind label %47

38:                                               ; preds = %30
  ret void

39:                                               ; preds = %5
  %40 = landingpad { ptr, i32 }
          cleanup
  %41 = extractvalue { ptr, i32 } %40, 0
  store ptr %41, ptr %11, align 8
  %42 = extractvalue { ptr, i32 } %40, 1
  store i32 %42, ptr %12, align 4
  br label %52

43:                                               ; preds = %20
  %44 = landingpad { ptr, i32 }
          cleanup
  %45 = extractvalue { ptr, i32 } %44, 0
  store ptr %45, ptr %11, align 8
  %46 = extractvalue { ptr, i32 } %44, 1
  store i32 %46, ptr %12, align 4
  br label %51

47:                                               ; preds = %30
  %48 = landingpad { ptr, i32 }
          cleanup
  %49 = extractvalue { ptr, i32 } %48, 0
  store ptr %49, ptr %11, align 8
  %50 = extractvalue { ptr, i32 } %48, 1
  store i32 %50, ptr %12, align 4
  call void @_ZN6icu_7713UnicodeStringD1Ev(ptr noundef nonnull align 8 dereferenceable(64) %29) #14
  br label %51

51:                                               ; preds = %47, %43
  call void @_ZN6icu_776LocaleD1Ev(ptr noundef nonnull align 8 dereferenceable(217) %18) #14
  br label %52

52:                                               ; preds = %51, %39
  call void @_ZN6icu_7712NumberFormatD2Ev(ptr noundef nonnull align 8 dereferenceable(60) %13) #14
  br label %53

53:                                               ; preds = %52
  %54 = load ptr, ptr %11, align 8
  %55 = load i32, ptr %12, align 4
  %56 = insertvalue { ptr, i32 } poison, ptr %54, 0
  %57 = insertvalue { ptr, i32 } %56, i32 %55, 1
  resume { ptr, i32 } %57
}