; Function Attrs: mustprogress uwtable
define void @_ZN6icu_7721RuleBasedNumberFormatC2ERKNS_13UnicodeStringERKNS_6LocaleER11UParseErrorR10UErrorCode(ptr noundef nonnull align 8 dereferenceable(456) %0, ptr noundef nonnull align 8 dereferenceable(64) %1, ptr noundef nonnull align 8 dereferenceable(217) %2, ptr noundef nonnull writeonly align 4 captures(none) dereferenceable(72) %3, ptr noundef nonnull align 4 dereferenceable(4) %4) unnamed_addr #3 align 2 personality ptr @__gxx_personality_v0 {
  tail call void @_ZN6icu_7712NumberFormatC2Ev(ptr noundef nonnull align 8 dereferenceable(60) %0)
  store ptr getelementptr inbounds nuw inrange(-16, 408) (i8, ptr @_ZTVN6icu_7721RuleBasedNumberFormatE, i64 16), ptr %0, align 8, !tbaa !3
  %6 = getelementptr inbounds nuw i8, ptr %0, i64 64
  %7 = getelementptr inbounds nuw i8, ptr %0, i64 88
  store ptr null, ptr %7, align 8, !tbaa !64
  %8 = getelementptr inbounds nuw i8, ptr %0, i64 96
  tail call void @llvm.memset.p0.i64(ptr noundef nonnull align 8 dereferenceable(20) %6, i8 0, i64 20, i1 false)
  invoke void @_ZN6icu_776LocaleC1ERKS0_(ptr noundef nonnull align 8 dereferenceable(217) %8, ptr noundef nonnull align 8 dereferenceable(217) %2)
          to label %9 unwind label %21

9:                                                ; preds = %5
  %10 = getelementptr inbounds nuw i8, ptr %0, i64 320
  %11 = getelementptr inbounds nuw i8, ptr %0, i64 352
  tail call void @llvm.memset.p0.i64(ptr noundef nonnull align 8 dereferenceable(32) %10, i8 0, i64 32, i1 false)
  store i32 7, ptr %11, align 8, !tbaa !84
  %12 = getelementptr inbounds nuw i8, ptr %0, i64 356
  store i8 0, ptr %12, align 4, !tbaa !85
  %13 = getelementptr inbounds nuw i8, ptr %0, i64 360
  %14 = getelementptr inbounds nuw i8, ptr %0, i64 376
  tail call void @llvm.memset.p0.i64(ptr noundef nonnull align 8 dereferenceable(16) %13, i8 0, i64 16, i1 false)
  store ptr getelementptr inbounds nuw inrange(-16, 88) (i8, ptr @_ZTVN6icu_7713UnicodeStringE, i64 16), ptr %14, align 8, !tbaa !3
  %15 = getelementptr inbounds nuw i8, ptr %0, i64 384
  store i16 2, ptr %15, align 8, !tbaa !55
  %16 = getelementptr inbounds nuw i8, ptr %0, i64 440
  store i8 0, ptr %16, align 8, !tbaa !86
  %17 = getelementptr inbounds nuw i8, ptr %0, i64 441
  store i8 0, ptr %17, align 1, !tbaa !87
  %18 = getelementptr inbounds nuw i8, ptr %0, i64 442
  store i8 0, ptr %18, align 2, !tbaa !88
  %19 = getelementptr inbounds nuw i8, ptr %0, i64 448
  store ptr null, ptr %19, align 8, !tbaa !89
  invoke void @_ZN6icu_7721RuleBasedNumberFormat4initERKNS_13UnicodeStringEPNS_16LocalizationInfoER11UParseErrorR10UErrorCode(ptr noundef nonnull align 8 dereferenceable(456) %0, ptr noundef nonnull align 8 dereferenceable(64) %1, ptr noundef null, ptr noundef nonnull align 4 dereferenceable(72) %3, ptr noundef nonnull align 4 dereferenceable(4) %4)
          to label %20 unwind label %23

20:                                               ; preds = %9
  ret void

21:                                               ; preds = %5
  %22 = landingpad { ptr, i32 }
          cleanup
  br label %25

23:                                               ; preds = %9
  %24 = landingpad { ptr, i32 }
          cleanup
  tail call void @_ZN6icu_7713UnicodeStringD1Ev(ptr noundef nonnull align 8 dereferenceable(64) %14) #21
  tail call void @_ZN6icu_776LocaleD1Ev(ptr noundef nonnull align 8 dereferenceable(217) %8) #21
  br label %25

25:                                               ; preds = %23, %21
  %.pn.pn = phi { ptr, i32 } [ %24, %23 ], [ %22, %21 ]
  tail call void @_ZN6icu_7712NumberFormatD2Ev(ptr noundef nonnull align 8 dereferenceable(60) %0) #21
  resume { ptr, i32 } %.pn.pn
}